target datalayout = "e-m:e-p270:32:32-p271:32:32-p272:64:64-i64:64-i128:128-f80:128-n8:16:32:64-S128"
target triple = "x86_64-pc-linux-gnu"

%struct.redisCommand = type { ptr, ptr, ptr, ptr, i32, ptr, ptr, i32, ptr, i32, ptr, i32, ptr, i32, i64, i64, ptr, i32, ptr, i32, ptr, ptr, i64, i64, i64, i64, i32, ptr, ptr, %struct.keySpec, ptr, ptr, ptr }
%struct.keySpec = type { ptr, i64, i32, %union.anon, i32, %union.anon.2 }
%union.anon = type { %struct.anon.1 }
%struct.anon.1 = type { ptr, i32 }
%union.anon.2 = type { %struct.anon.3 }
%struct.anon.3 = type { i32, i32, i32 }

; Function Attrs: nounwind uwtable
define dso_local i64 @getAllKeySpecsFlags(ptr noundef %0, i32 noundef %1) #0 {
  %3 = alloca ptr, align 8
  %4 = alloca i32, align 4
  %5 = alloca i64, align 8
  %6 = alloca i32, align 4
  %7 = alloca ptr, align 8
  store ptr %0, ptr %3, align 8, !tbaa !213
  store i32 %1, ptr %4, align 4, !tbaa !14
  call void @llvm.lifetime.start.p0(i64 8, ptr %5) #15
  store i64 0, ptr %5, align 8, !tbaa !10
  call void @llvm.lifetime.start.p0(i64 4, ptr %6) #15
  store i32 0, ptr %6, align 4, !tbaa !14
  br label %8

8:                                                ; preds = %37, %2
  %9 = load i32, ptr %6, align 4, !tbaa !14
  %10 = load ptr, ptr %3, align 8, !tbaa !213
  %11 = getelementptr inbounds nuw %struct.redisCommand, ptr %10, i32 0, i32 17
  %12 = load i32, ptr %11, align 8, !tbaa !214
  %13 = icmp slt i32 %9, %12
  br i1 %13, label %15, label %14

14:                                               ; preds = %8
  call void @llvm.lifetime.end.p0(i64 4, ptr %6) #15
  br label %40

15:                                               ; preds = %8
  call void @llvm.lifetime.start.p0(i64 8, ptr %7) #15
  %16 = load ptr, ptr %3, align 8, !tbaa !213
  %17 = getelementptr inbounds nuw %struct.redisCommand, ptr %16, i32 0, i32 16
  %18 = load ptr, ptr %17, align 8, !tbaa !215
  %19 = load i32, ptr %6, align 4, !tbaa !14
  %20 = sext i32 %19 to i64
  %21 = getelementptr inbounds %struct.keySpec, ptr %18, i64 %20
  store ptr %21, ptr %7, align 8, !tbaa !22
  %22 = load i32, ptr %4, align 4, !tbaa !14
  %23 = icmp ne i32 %22, 0
  br i1 %23, label %24, label %29

24:                                               ; preds = %15
  %25 = load ptr, ptr %7, align 8, !tbaa !22
  %26 = getelementptr inbounds nuw %struct.keySpec, ptr %25, i32 0, i32 1
  %27 = load i64, ptr %26, align 8, !tbaa !216
  %28 = xor i64 %27, -1
  br label %33

29:                                               ; preds = %15
  %30 = load ptr, ptr %7, align 8, !tbaa !22
  %31 = getelementptr inbounds nuw %struct.keySpec, ptr %30, i32 0, i32 1
  %32 = load i64, ptr %31, align 8, !tbaa !216
  br label %33

33:                                               ; preds = %29, %24
  %34 = phi i64 [ %28, %24 ], [ %32, %29 ]
  %35 = load i64, ptr %5, align 8, !tbaa !10
  %36 = or i64 %35, %34
  store i64 %36, ptr %5, align 8, !tbaa !10
  call void @llvm.lifetime.end.p0(i64 8, ptr %7) #15
  br label %37

37:                                               ; preds = %33
  %38 = load i32, ptr %6, align 4, !tbaa !14
  %39 = add nsw i32 %38, 1
  store i32 %39, ptr %6, align 4, !tbaa !14
  br label %8, !llvm.loop !217

40:                                               ; preds = %14
  %41 = load i64, ptr %5, align 8, !tbaa !10
  call void @llvm.lifetime.end.p0(i64 8, ptr %5) #15
  ret i64 %41
}

; Function Attrs: nounwind uwtable
define dso_local i32 @getKeysFromCommandWithSpecs(ptr noundef %0, ptr noundef %1, i32 noundef %2, i32 noundef %3, ptr noundef %4) #0 {
  %6 = alloca i32, align 4
  %7 = alloca ptr, align 8
  %8 = alloca ptr, align 8
  %9 = alloca i32, align 4
  %10 = alloca i32, align 4
  %11 = alloca ptr, align 8
  %12 = alloca i32, align 4
  %13 = alloca i32, align 4
  %14 = alloca i32, align 4
  %15 = alloca i32, align 4
  store ptr %0, ptr %7, align 8, !tbaa !213
  store ptr %1, ptr %8, align 8, !tbaa !218
  store i32 %2, ptr %9, align 4, !tbaa !14
  store i32 %3, ptr %10, align 4, !tbaa !14
  store ptr %4, ptr %11, align 8, !tbaa !22
  call void @llvm.lifetime.start.p0(i64 4, ptr %12) #15
  %16 = load ptr, ptr %7, align 8, !tbaa !213
  %17 = call i64 @getAllKeySpecsFlags(ptr noundef %16, i32 noundef 1)
  %18 = and i64 %17, 256
  %19 = trunc i64 %18 to i32
  store i32 %19, ptr %12, align 4, !tbaa !14
  call void @llvm.lifetime.start.p0(i64 4, ptr %13) #15
  %20 = load ptr, ptr %7, align 8, !tbaa !213
  %21 = call i64 @getAllKeySpecsFlags(ptr noundef %20, i32 noundef 0)
  %22 = and i64 %21, 1024
  %23 = trunc i64 %22 to i32
  store i32 %23, ptr %13, align 4, !tbaa !14
  %24 = load i32, ptr %12, align 4, !tbaa !14
  %25 = icmp ne i32 %24, 0
  br i1 %25, label %26, label %44

26:                                               ; preds = %5
  %27 = load i32, ptr %13, align 4, !tbaa !14
  %28 = icmp ne i32 %27, 0
  br i1 %28, label %44, label %29

29:                                               ; preds = %26
  call void @llvm.lifetime.start.p0(i64 4, ptr %14) #15
  %30 = load ptr, ptr %7, align 8, !tbaa !213
  %31 = load ptr, ptr %8, align 8, !tbaa !218
  %32 = load i32, ptr %9, align 4, !tbaa !14
  %33 = load i32, ptr %10, align 4, !tbaa !14
  %34 = load ptr, ptr %11, align 8, !tbaa !22
  %35 = call i32 @getKeysUsingKeySpecs(ptr noundef %30, ptr noundef %31, i32 noundef %32, i32 noundef %33, ptr noundef %34)
  store i32 %35, ptr %14, align 4, !tbaa !14
  %36 = load i32, ptr %14, align 4, !tbaa !14
  %37 = icmp sge i32 %36, 0
  br i1 %37, label %38, label %40

38:                                               ; preds = %29
  %39 = load i32, ptr %14, align 4, !tbaa !14
  store i32 %39, ptr %6, align 4
  store i32 1, ptr %15, align 4
  br label %41

40:                                               ; preds = %29
  store i32 0, ptr %15, align 4
  br label %41

41:                                               ; preds = %40, %38
  call void @llvm.lifetime.end.p0(i64 4, ptr %14) #15
  %42 = load i32, ptr %15, align 4
  switch i32 %42, label %71 [
    i32 0, label %43
  ]

43:                                               ; preds = %41
  br label %44

44:                                               ; preds = %43, %26, %5
  %45 = load ptr, ptr %7, align 8, !tbaa !213
  %46 = getelementptr inbounds nuw %struct.redisCommand, ptr %45, i32 0, i32 14
  %47 = load i64, ptr %46, align 8, !tbaa !222
  %48 = and i64 %47, 2097152
  %49 = icmp ne i64 %48, 0
  br i1 %49, label %50, label %56

50:                                               ; preds = %44
  %51 = load ptr, ptr %7, align 8, !tbaa !213
  %52 = load ptr, ptr %8, align 8, !tbaa !218
  %53 = load i32, ptr %9, align 4, !tbaa !14
  %54 = load ptr, ptr %11, align 8, !tbaa !22
  %55 = call i32 @moduleGetCommandKeysViaAPI(ptr noundef %51, ptr noundef %52, i32 noundef %53, ptr noundef %54)
  store i32 %55, ptr %6, align 4
  store i32 1, ptr %15, align 4
  br label %71

56:                                               ; preds = %44
  %57 = load ptr, ptr %7, align 8, !tbaa !213
  %58 = getelementptr inbounds nuw %struct.redisCommand, ptr %57, i32 0, i32 18
  %59 = load ptr, ptr %58, align 8, !tbaa !229
  %60 = icmp ne ptr %59, null
  br i1 %60, label %61, label %70

61:                                               ; preds = %56
  %62 = load ptr, ptr %7, align 8, !tbaa !213
  %63 = getelementptr inbounds nuw %struct.redisCommand, ptr %62, i32 0, i32 18
  %64 = load ptr, ptr %63, align 8, !tbaa !229
  %65 = load ptr, ptr %7, align 8, !tbaa !213
  %66 = load ptr, ptr %8, align 8, !tbaa !218
  %67 = load i32, ptr %9, align 4, !tbaa !14
  %68 = load ptr, ptr %11, align 8, !tbaa !22
  %69 = call i32 %64(ptr noundef %65, ptr noundef %66, i32 noundef %67, ptr noundef %68)
  store i32 %69, ptr %6, align 4
  store i32 1, ptr %15, align 4
  br label %71

70:                                               ; preds = %56
  store i32 0, ptr %6, align 4
  store i32 1, ptr %15, align 4
  br label %71

71:                                               ; preds = %70, %61, %50, %41
  call void @llvm.lifetime.end.p0(i64 4, ptr %13) #15
  call void @llvm.lifetime.end.p0(i64 4, ptr %12) #15
  %72 = load i32, ptr %6, align 4
  ret i32 %72
}