; Function Attrs: nounwind uwtable
define dso_local i32 @getKeysFromCommandWithSpecs(ptr noundef %0, ptr noundef %1, i32 noundef %2, i32 noundef %3, ptr noundef %4) local_unnamed_addr #0 {
  %6 = getelementptr inbounds nuw i8, ptr %0, i64 136
  %7 = load i32, ptr %6, align 8, !tbaa !179
  %8 = icmp sgt i32 %7, 0
  br i1 %8, label %.lr.ph.i, label %getAllKeySpecsFlags.exit31.thread

.lr.ph.i:                                         ; preds = %5
  %9 = getelementptr inbounds nuw i8, ptr %0, i64 128
  %10 = load ptr, ptr %9, align 8, !tbaa !180
  %invariant.gep12.i = getelementptr inbounds nuw i8, ptr %10, i64 8
  %wide.trip.count20.i = zext nneg i32 %7 to i64
  br label %.lr.ph.split.i

.lr.ph.split.i:                                   ; preds = %.lr.ph.split.i, %.lr.ph.i
  %indvars.iv.i = phi i64 [ %indvars.iv.next.i, %.lr.ph.split.i ], [ 0, %.lr.ph.i ]
  %.011.i = phi i64 [ %13, %.lr.ph.split.i ], [ 0, %.lr.ph.i ]
  %gep.i = getelementptr inbounds nuw %struct.keySpec, ptr %invariant.gep12.i, i64 %indvars.iv.i
  %11 = load i64, ptr %gep.i, align 8, !tbaa !181
  %12 = xor i64 %11, -1
  %13 = or i64 %.011.i, %12
  %indvars.iv.next.i = add nuw nsw i64 %indvars.iv.i, 1
  %exitcond.not.i = icmp eq i64 %indvars.iv.next.i, %wide.trip.count20.i
  br i1 %exitcond.not.i, label %.lr.ph.split.us.i, label %.lr.ph.split.i, !llvm.loop !182

.lr.ph.split.us.i:                                ; preds = %.lr.ph.split.i, %.lr.ph.split.us.i
  %indvars.iv17.i = phi i64 [ %indvars.iv.next18.i, %.lr.ph.split.us.i ], [ 0, %.lr.ph.split.i ]
  %.011.us.i = phi i64 [ %15, %.lr.ph.split.us.i ], [ 0, %.lr.ph.split.i ]
  %gep13.i = getelementptr inbounds nuw %struct.keySpec, ptr %invariant.gep12.i, i64 %indvars.iv17.i
  %14 = load i64, ptr %gep13.i, align 8, !tbaa !181
  %15 = or i64 %14, %.011.us.i
  %indvars.iv.next18.i = add nuw nsw i64 %indvars.iv17.i, 1
  %exitcond21.not.i = icmp eq i64 %indvars.iv.next18.i, %wide.trip.count20.i
  br i1 %exitcond21.not.i, label %getAllKeySpecsFlags.exit31, label %.lr.ph.split.us.i, !llvm.loop !182

getAllKeySpecsFlags.exit31:                       ; preds = %.lr.ph.split.us.i
  %16 = and i64 %13, 256
  %17 = icmp eq i64 %16, 0
  %18 = and i64 %15, 1024
  %19 = icmp ne i64 %18, 0
  %or.cond = select i1 %17, i1 true, i1 %19
  br i1 %or.cond, label %getAllKeySpecsFlags.exit31.thread, label %20

20:                                               ; preds = %getAllKeySpecsFlags.exit31
  %21 = tail call i32 @getKeysUsingKeySpecs(ptr noundef %0, ptr noundef %1, i32 noundef %2, i32 noundef %3, ptr noundef %4)
  %22 = icmp slt i32 %21, 0
  br i1 %22, label %getAllKeySpecsFlags.exit31.thread, label %33

getAllKeySpecsFlags.exit31.thread:                ; preds = %5, %20, %getAllKeySpecsFlags.exit31
  %23 = getelementptr inbounds nuw i8, ptr %0, i64 112
  %24 = load i64, ptr %23, align 8, !tbaa !186
  %25 = and i64 %24, 2097152
  %.not = icmp eq i64 %25, 0
  br i1 %.not, label %28, label %26

26:                                               ; preds = %getAllKeySpecsFlags.exit31.thread
  %27 = tail call i32 @moduleGetCommandKeysViaAPI(ptr noundef nonnull %0, ptr noundef %1, i32 noundef %2, ptr noundef %4) #20
  br label %33

28:                                               ; preds = %getAllKeySpecsFlags.exit31.thread
  %29 = getelementptr inbounds nuw i8, ptr %0, i64 144
  %30 = load ptr, ptr %29, align 8, !tbaa !193
  %.not26 = icmp eq ptr %30, null
  br i1 %.not26, label %33, label %31

31:                                               ; preds = %28
  %32 = tail call i32 %30(ptr noundef nonnull %0, ptr noundef %1, i32 noundef %2, ptr noundef %4) #20
  br label %33

33:                                               ; preds = %28, %20, %31, %26
  %.1 = phi i32 [ %27, %26 ], [ %32, %31 ], [ %21, %20 ], [ 0, %28 ]
  ret i32 %.1
}